; ModuleID = '36/1569.c'
source_filename = "36/1569.c"
target datalayout = "e-m:e-p270:32:32-p271:32:32-p272:64:64-i64:64-f80:128-n8:16:32:64-S128"
target triple = "x86_64-pc-linux-gnu"

@.str = private unnamed_addr constant [5 x i8] c"%s%s\00", align 1
@.str.1 = private unnamed_addr constant [3 x i8] c"NO\00", align 1
@.str.2 = private unnamed_addr constant [4 x i8] c"YES\00", align 1

; Function Attrs: noinline nounwind uwtable
define dso_local i32 @main() #0 {
  %1 = alloca i32, align 4
  %2 = alloca [2 x [100 x i8]], align 16
  %3 = alloca [2 x [256 x i32]], align 16
  %4 = alloca i32, align 4
  %5 = alloca i32, align 4
  %6 = alloca i32, align 4
  %7 = alloca i32, align 4
  %8 = alloca i32, align 4
  store i32 0, i32* %1, align 4
  %9 = bitcast [2 x [100 x i8]]* %2 to i8*
  call void @llvm.memset.p0i8.i64(i8* align 16 %9, i8 0, i64 200, i1 false)
  %10 = bitcast [2 x [256 x i32]]* %3 to i8*
  call void @llvm.memset.p0i8.i64(i8* align 16 %10, i8 0, i64 2048, i1 false)
  %11 = getelementptr inbounds [2 x [100 x i8]], [2 x [100 x i8]]* %2, i64 0, i64 0
  %12 = getelementptr inbounds [100 x i8], [100 x i8]* %11, i64 0, i64 0
  %13 = getelementptr inbounds [2 x [100 x i8]], [2 x [100 x i8]]* %2, i64 0, i64 1
  %14 = getelementptr inbounds [100 x i8], [100 x i8]* %13, i64 0, i64 0
  %15 = call i32 (i8*, ...) @__isoc99_scanf(i8* getelementptr inbounds ([5 x i8], [5 x i8]* @.str, i64 0, i64 0), i8* %12, i8* %14)
  %16 = getelementptr inbounds [2 x [100 x i8]], [2 x [100 x i8]]* %2, i64 0, i64 0
  %17 = getelementptr inbounds [100 x i8], [100 x i8]* %16, i64 0, i64 0
  %18 = call i64 @strlen(i8* %17) #4
  %19 = trunc i64 %18 to i32
  store i32 %19, i32* %7, align 4
  %20 = getelementptr inbounds [2 x [100 x i8]], [2 x [100 x i8]]* %2, i64 0, i64 1
  %21 = getelementptr inbounds [100 x i8], [100 x i8]* %20, i64 0, i64 0
  %22 = call i64 @strlen(i8* %21) #4
  %23 = trunc i64 %22 to i32
  store i32 %23, i32* %8, align 4
  %24 = load i32, i32* %7, align 4
  %25 = load i32, i32* %8, align 4
  %26 = icmp ne i32 %24, %25
  br i1 %26, label %27, label %29

27:                                               ; preds = %0
  %28 = call i32 (i8*, ...) @printf(i8* getelementptr inbounds ([3 x i8], [3 x i8]* @.str.1, i64 0, i64 0))
  br label %89

29:                                               ; preds = %0
  store i32 0, i32* %4, align 4
  br label %30

30:                                               ; preds = %57, %29
  %31 = load i32, i32* %4, align 4
  %32 = icmp slt i32 %31, 2
  br i1 %32, label %33, label %60

33:                                               ; preds = %30
  store i32 0, i32* %5, align 4
  br label %34

34:                                               ; preds = %53, %33
  %35 = load i32, i32* %5, align 4
  %36 = load i32, i32* %7, align 4
  %37 = icmp slt i32 %35, %36
  br i1 %37, label %38, label %56

38:                                               ; preds = %34
  %39 = load i32, i32* %4, align 4
  %40 = sext i32 %39 to i64
  %41 = getelementptr inbounds [2 x [256 x i32]], [2 x [256 x i32]]* %3, i64 0, i64 %40
  %42 = load i32, i32* %4, align 4
  %43 = sext i32 %42 to i64
  %44 = getelementptr inbounds [2 x [100 x i8]], [2 x [100 x i8]]* %2, i64 0, i64 %43
  %45 = load i32, i32* %5, align 4
  %46 = sext i32 %45 to i64
  %47 = getelementptr inbounds [100 x i8], [100 x i8]* %44, i64 0, i64 %46
  %48 = load i8, i8* %47, align 1
  %49 = sext i8 %48 to i64
  %50 = getelementptr inbounds [256 x i32], [256 x i32]* %41, i64 0, i64 %49
  %51 = load i32, i32* %50, align 4
  %52 = add nsw i32 %51, 1
  store i32 %52, i32* %50, align 4
  br label %53

53:                                               ; preds = %38
  %54 = load i32, i32* %5, align 4
  %55 = add nsw i32 %54, 1
  store i32 %55, i32* %5, align 4
  br label %34

56:                                               ; preds = %34
  br label %57

57:                                               ; preds = %56
  %58 = load i32, i32* %4, align 4
  %59 = add nsw i32 %58, 1
  store i32 %59, i32* %4, align 4
  br label %30

60:                                               ; preds = %30
  store i32 1, i32* %6, align 4
  store i32 0, i32* %5, align 4
  br label %61

61:                                               ; preds = %78, %60
  %62 = load i32, i32* %5, align 4
  %63 = icmp slt i32 %62, 256
  br i1 %63, label %64, label %81

64:                                               ; preds = %61
  %65 = getelementptr inbounds [2 x [256 x i32]], [2 x [256 x i32]]* %3, i64 0, i64 0
  %66 = load i32, i32* %5, align 4
  %67 = sext i32 %66 to i64
  %68 = getelementptr inbounds [256 x i32], [256 x i32]* %65, i64 0, i64 %67
  %69 = load i32, i32* %68, align 4
  %70 = getelementptr inbounds [2 x [256 x i32]], [2 x [256 x i32]]* %3, i64 0, i64 1
  %71 = load i32, i32* %5, align 4
  %72 = sext i32 %71 to i64
  %73 = getelementptr inbounds [256 x i32], [256 x i32]* %70, i64 0, i64 %72
  %74 = load i32, i32* %73, align 4
  %75 = icmp ne i32 %69, %74
  br i1 %75, label %76, label %77

76:                                               ; preds = %64
  store i32 0, i32* %6, align 4
  br label %81

77:                                               ; preds = %64
  br label %78

78:                                               ; preds = %77
  %79 = load i32, i32* %5, align 4
  %80 = add nsw i32 %79, 1
  store i32 %80, i32* %5, align 4
  br label %61

81:                                               ; preds = %76, %61
  %82 = load i32, i32* %6, align 4
  %83 = icmp ne i32 %82, 0
  br i1 %83, label %84, label %86

84:                                               ; preds = %81
  %85 = call i32 (i8*, ...) @printf(i8* getelementptr inbounds ([4 x i8], [4 x i8]* @.str.2, i64 0, i64 0))
  br label %88

86:                                               ; preds = %81
  %87 = call i32 (i8*, ...) @printf(i8* getelementptr inbounds ([3 x i8], [3 x i8]* @.str.1, i64 0, i64 0))
  br label %88

88:                                               ; preds = %86, %84
  br label %89

89:                                               ; preds = %88, %27
  %90 = load i32, i32* %1, align 4
  ret i32 %90
}

; Function Attrs: argmemonly nounwind willreturn
declare void @llvm.memset.p0i8.i64(i8* nocapture writeonly, i8, i64, i1 immarg) #1

declare dso_local i32 @__isoc99_scanf(i8*, ...) #2

; Function Attrs: nounwind readonly
declare dso_local i64 @strlen(i8*) #3

declare dso_local i32 @printf(i8*, ...) #2


!llvm.module.flags = !{!0}
!llvm.ident = !{!1}

!0 = !{i32 1, !"wchar_size", i32 4}
!1 = !{!"clang version 10.0.0-4ubuntu1 "}
